target datalayout = "e-m:e-p270:32:32-p271:32:32-p272:64:64-i64:64-i128:128-f80:128-n8:16:32:64-S128"
target triple = "x86_64-pc-linux-gnu"

%"class.cvc5::internal::expr::NodeValue" = type { i64, i64, ptr, [0 x ptr] }

; Function Attrs: mustprogress nounwind uwtable
define hidden noundef nonnull align 4 dereferenceable(4) ptr @_ZNK4cvc58internal4expr9NodeValue8getConstINS0_18FloatingPointToUBVEEERKT_v(ptr noundef nonnull align 8 dereferenceable(24) %0) #9 align 2 {
  %2 = alloca ptr, align 8
  store ptr %0, ptr %2, align 8, !tbaa !3
  %3 = load ptr, ptr %2, align 8
  %4 = getelementptr inbounds nuw %"class.cvc5::internal::expr::NodeValue", ptr %3, i32 0, i32 1
  %5 = load i64, ptr %4, align 8
  %6 = lshr i64 %5, 32
  %7 = and i64 %6, 67108863
  %8 = trunc i64 %7 to i32
  %9 = icmp eq i32 %8, 0
  br i1 %9, label %10, label %13

10:                                               ; preds = %1
  %11 = getelementptr inbounds nuw %"class.cvc5::internal::expr::NodeValue", ptr %3, i32 0, i32 3
  %12 = getelementptr inbounds [0 x ptr], ptr %11, i64 0, i64 0
  br label %17

13:                                               ; preds = %1
  %14 = getelementptr inbounds nuw %"class.cvc5::internal::expr::NodeValue", ptr %3, i32 0, i32 3
  %15 = getelementptr inbounds [0 x ptr], ptr %14, i64 0, i64 0
  %16 = load ptr, ptr %15, align 8, !tbaa !3
  br label %17

17:                                               ; preds = %13, %10
  %18 = phi ptr [ %12, %10 ], [ %16, %13 ]
  ret ptr %18
}